target datalayout = "e-m:e-p270:32:32-p271:32:32-p272:64:64-i64:64-i128:128-f80:128-n8:16:32:64-S128"
target triple = "x86_64-pc-linux-gnu"

%struct.AVCodecContext = type { ptr, i32, i32, ptr, i32, i32, ptr, ptr, ptr, i64, i32, i32, ptr, i32, %struct.AVRational, %struct.AVRational, %struct.AVRational, i32, i32, i32, i32, i32, %struct.AVRational, i32, i32, i32, i32, i32, i32, i32, i32, i32, i32, i32, ptr, ptr, i32, float, float, float, float, float, float, float, float, float, i32, i32, i32, i32, i32, i32, i32, i32, i32, i32, i32, i32, ptr, ptr, ptr, i32, i32, i32, i32, i32, i32, i32, i32, i32, i32, %struct.AVChannelLayout, i32, i32, i32, i32, i32, i32, i32, i32, ptr, i32, i32, i32, float, float, i32, i32, i32, i32, i32, ptr, i64, i64, float, float, i32, i32, ptr, ptr, i32, i32, i32, i32, i32, ptr, ptr, ptr, ptr, i32, i32, [8 x i64], i32, i32, i32, i32, i32, i32, i32, ptr, ptr, i32, i32, i32, i32, i32, i32, i32, i32, i32, i32, ptr, ptr, i32, i32, ptr, ptr, ptr, ptr, i32, i32, i64, i32, i32, i64, ptr, i64, ptr, i32, ptr, i32 }
%struct.AVRational = type { i32, i32 }
%struct.AVChannelLayout = type { i32, i32, %union.anon.0, ptr }
%union.anon.0 = type { i64 }
%struct.DFPWMState = type { i32, i32, i32, i32 }
%struct.AVFrame = type { [8 x ptr], [8 x i32], ptr, i32, i32, i32, i32, i32, %struct.AVRational, i64, i64, %struct.AVRational, i32, ptr, i32, i32, [8 x ptr], ptr, i32, ptr, i32, i32, i32, i32, i32, i32, i32, i64, ptr, i32, ptr, ptr, i64, i64, i64, i64, ptr, %struct.AVChannelLayout, i64 }
%struct.AVPacket = type { ptr, i64, i64, ptr, i32, i32, i32, ptr, i32, i64, i64, ptr, ptr, %struct.AVRational }

; Function Attrs: nounwind uwtable
define internal void @au_compress(ptr noundef %0, i32 noundef %1, ptr noundef %2, ptr noundef %3) #1 {
  %5 = alloca ptr, align 8
  %6 = alloca i32, align 4
  %7 = alloca ptr, align 8
  %8 = alloca ptr, align 8
  %9 = alloca i32, align 4
  %10 = alloca i32, align 4
  %11 = alloca i32, align 4
  %12 = alloca i32, align 4
  %13 = alloca i32, align 4
  %14 = alloca i32, align 4
  %15 = alloca i32, align 4
  %16 = alloca i32, align 4
  %17 = alloca i32, align 4
  store ptr %0, ptr %5, align 8, !tbaa !29
  store i32 %1, ptr %6, align 4, !tbaa !47
  store ptr %2, ptr %7, align 8, !tbaa !50
  store ptr %3, ptr %8, align 8, !tbaa !50
  call void @llvm.lifetime.start.p0(i64 4, ptr %9) #4
  store i32 0, ptr %9, align 4, !tbaa !47
  call void @llvm.lifetime.start.p0(i64 4, ptr %10) #4
  store i32 0, ptr %10, align 4, !tbaa !47
  br label %18

18:                                               ; preds = %132, %4
  %19 = load i32, ptr %10, align 4, !tbaa !47
  %20 = load i32, ptr %6, align 4, !tbaa !47
  %21 = icmp slt i32 %19, %20
  br i1 %21, label %23, label %22

22:                                               ; preds = %18
  store i32 2, ptr %11, align 4
  call void @llvm.lifetime.end.p0(i64 4, ptr %10) #4
  br label %135

23:                                               ; preds = %18
  call void @llvm.lifetime.start.p0(i64 4, ptr %12) #4
  store i32 0, ptr %12, align 4, !tbaa !47
  br label %24

24:                                               ; preds = %124, %23
  %25 = load i32, ptr %12, align 4, !tbaa !47
  %26 = icmp slt i32 %25, 8
  br i1 %26, label %28, label %27

27:                                               ; preds = %24
  store i32 5, ptr %11, align 4
  call void @llvm.lifetime.end.p0(i64 4, ptr %12) #4
  br label %127

28:                                               ; preds = %24
  call void @llvm.lifetime.start.p0(i64 4, ptr %13) #4
  call void @llvm.lifetime.start.p0(i64 4, ptr %14) #4
  call void @llvm.lifetime.start.p0(i64 4, ptr %15) #4
  call void @llvm.lifetime.start.p0(i64 4, ptr %16) #4
  %29 = load ptr, ptr %8, align 8, !tbaa !50
  %30 = getelementptr inbounds nuw i8, ptr %29, i32 1
  store ptr %30, ptr %8, align 8, !tbaa !50
  %31 = load i8, ptr %29, align 1, !tbaa !51
  %32 = zext i8 %31 to i32
  %33 = sub nsw i32 %32, 128
  store i32 %33, ptr %16, align 4, !tbaa !47
  call void @llvm.lifetime.start.p0(i64 4, ptr %17) #4
  %34 = load i32, ptr %16, align 4, !tbaa !47
  %35 = load ptr, ptr %5, align 8, !tbaa !29
  %36 = getelementptr inbounds nuw %struct.DFPWMState, ptr %35, i32 0, i32 1
  %37 = load i32, ptr %36, align 4, !tbaa !32
  %38 = icmp sgt i32 %34, %37
  br i1 %38, label %50, label %39

39:                                               ; preds = %28
  %40 = load i32, ptr %16, align 4, !tbaa !47
  %41 = load ptr, ptr %5, align 8, !tbaa !29
  %42 = getelementptr inbounds nuw %struct.DFPWMState, ptr %41, i32 0, i32 1
  %43 = load i32, ptr %42, align 4, !tbaa !32
  %44 = icmp eq i32 %40, %43
  br i1 %44, label %45, label %48

45:                                               ; preds = %39
  %46 = load i32, ptr %16, align 4, !tbaa !47
  %47 = icmp eq i32 %46, 127
  br label %48

48:                                               ; preds = %45, %39
  %49 = phi i1 [ false, %39 ], [ %47, %45 ]
  br label %50

50:                                               ; preds = %48, %28
  %51 = phi i1 [ true, %28 ], [ %49, %48 ]
  %52 = select i1 %51, i32 127, i32 -128
  store i32 %52, ptr %17, align 4, !tbaa !47
  %53 = load i32, ptr %9, align 4, !tbaa !47
  %54 = lshr i32 %53, 1
  store i32 %54, ptr %9, align 4, !tbaa !47
  %55 = load i32, ptr %17, align 4, !tbaa !47
  %56 = icmp sgt i32 %55, 0
  br i1 %56, label %57, label %60

57:                                               ; preds = %50
  %58 = load i32, ptr %9, align 4, !tbaa !47
  %59 = or i32 %58, 128
  store i32 %59, ptr %9, align 4, !tbaa !47
  br label %60

60:                                               ; preds = %57, %50
  %61 = load ptr, ptr %5, align 8, !tbaa !29
  %62 = getelementptr inbounds nuw %struct.DFPWMState, ptr %61, i32 0, i32 1
  %63 = load i32, ptr %62, align 4, !tbaa !32
  %64 = load ptr, ptr %5, align 8, !tbaa !29
  %65 = getelementptr inbounds nuw %struct.DFPWMState, ptr %64, i32 0, i32 2
  %66 = load i32, ptr %65, align 4, !tbaa !33
  %67 = load i32, ptr %17, align 4, !tbaa !47
  %68 = load ptr, ptr %5, align 8, !tbaa !29
  %69 = getelementptr inbounds nuw %struct.DFPWMState, ptr %68, i32 0, i32 1
  %70 = load i32, ptr %69, align 4, !tbaa !32
  %71 = sub nsw i32 %67, %70
  %72 = mul nsw i32 %66, %71
  %73 = add nsw i32 %72, 512
  %74 = ashr i32 %73, 10
  %75 = add nsw i32 %63, %74
  store i32 %75, ptr %13, align 4, !tbaa !47
  %76 = load i32, ptr %13, align 4, !tbaa !47
  %77 = load ptr, ptr %5, align 8, !tbaa !29
  %78 = getelementptr inbounds nuw %struct.DFPWMState, ptr %77, i32 0, i32 1
  %79 = load i32, ptr %78, align 4, !tbaa !32
  %80 = icmp eq i32 %76, %79
  br i1 %80, label %81, label %91

81:                                               ; preds = %60
  %82 = load i32, ptr %13, align 4, !tbaa !47
  %83 = load i32, ptr %17, align 4, !tbaa !47
  %84 = icmp ne i32 %82, %83
  br i1 %84, label %85, label %91

85:                                               ; preds = %81
  %86 = load i32, ptr %17, align 4, !tbaa !47
  %87 = icmp eq i32 %86, 127
  %88 = select i1 %87, i32 1, i32 -1
  %89 = load i32, ptr %13, align 4, !tbaa !47
  %90 = add nsw i32 %89, %88
  store i32 %90, ptr %13, align 4, !tbaa !47
  br label %91

91:                                               ; preds = %85, %81, %60
  %92 = load i32, ptr %13, align 4, !tbaa !47
  %93 = load ptr, ptr %5, align 8, !tbaa !29
  %94 = getelementptr inbounds nuw %struct.DFPWMState, ptr %93, i32 0, i32 1
  store i32 %92, ptr %94, align 4, !tbaa !32
  %95 = load i32, ptr %17, align 4, !tbaa !47
  %96 = load ptr, ptr %5, align 8, !tbaa !29
  %97 = getelementptr inbounds nuw %struct.DFPWMState, ptr %96, i32 0, i32 3
  %98 = load i32, ptr %97, align 4, !tbaa !34
  %99 = icmp ne i32 %95, %98
  %100 = select i1 %99, i32 0, i32 1023
  store i32 %100, ptr %14, align 4, !tbaa !47
  %101 = load ptr, ptr %5, align 8, !tbaa !29
  %102 = getelementptr inbounds nuw %struct.DFPWMState, ptr %101, i32 0, i32 2
  %103 = load i32, ptr %102, align 4, !tbaa !33
  store i32 %103, ptr %15, align 4, !tbaa !47
  %104 = load i32, ptr %15, align 4, !tbaa !47
  %105 = load i32, ptr %14, align 4, !tbaa !47
  %106 = icmp ne i32 %104, %105
  br i1 %106, label %107, label %113

107:                                              ; preds = %91
  %108 = load i32, ptr %14, align 4, !tbaa !47
  %109 = icmp ne i32 %108, 0
  %110 = select i1 %109, i32 1, i32 -1
  %111 = load i32, ptr %15, align 4, !tbaa !47
  %112 = add nsw i32 %111, %110
  store i32 %112, ptr %15, align 4, !tbaa !47
  br label %113

113:                                              ; preds = %107, %91
  %114 = load i32, ptr %15, align 4, !tbaa !47
  %115 = icmp slt i32 %114, 8
  br i1 %115, label %116, label %117

116:                                              ; preds = %113
  store i32 8, ptr %15, align 4, !tbaa !47
  br label %117

117:                                              ; preds = %116, %113
  %118 = load i32, ptr %15, align 4, !tbaa !47
  %119 = load ptr, ptr %5, align 8, !tbaa !29
  %120 = getelementptr inbounds nuw %struct.DFPWMState, ptr %119, i32 0, i32 2
  store i32 %118, ptr %120, align 4, !tbaa !33
  %121 = load i32, ptr %17, align 4, !tbaa !47
  %122 = load ptr, ptr %5, align 8, !tbaa !29
  %123 = getelementptr inbounds nuw %struct.DFPWMState, ptr %122, i32 0, i32 3
  store i32 %121, ptr %123, align 4, !tbaa !34
  call void @llvm.lifetime.end.p0(i64 4, ptr %17) #4
  call void @llvm.lifetime.end.p0(i64 4, ptr %16) #4
  call void @llvm.lifetime.end.p0(i64 4, ptr %15) #4
  call void @llvm.lifetime.end.p0(i64 4, ptr %14) #4
  call void @llvm.lifetime.end.p0(i64 4, ptr %13) #4
  br label %124

124:                                              ; preds = %117
  %125 = load i32, ptr %12, align 4, !tbaa !47
  %126 = add nsw i32 %125, 1
  store i32 %126, ptr %12, align 4, !tbaa !47
  br label %24, !llvm.loop !52

127:                                              ; preds = %27
  %128 = load i32, ptr %9, align 4, !tbaa !47
  %129 = trunc i32 %128 to i8
  %130 = load ptr, ptr %7, align 8, !tbaa !50
  %131 = getelementptr inbounds nuw i8, ptr %130, i32 1
  store ptr %131, ptr %7, align 8, !tbaa !50
  store i8 %129, ptr %130, align 1, !tbaa !51
  br label %132

132:                                              ; preds = %127
  %133 = load i32, ptr %10, align 4, !tbaa !47
  %134 = add nsw i32 %133, 1
  store i32 %134, ptr %10, align 4, !tbaa !47
  br label %18, !llvm.loop !54

135:                                              ; preds = %22
  call void @llvm.lifetime.end.p0(i64 4, ptr %9) #4
  ret void
}

; Function Attrs: nounwind uwtable
define internal i32 @dfpwm_enc_frame(ptr noundef %0, ptr noundef %1, ptr noundef %2, ptr noundef %3) #1 {
  %5 = alloca i32, align 4
  %6 = alloca ptr, align 8
  %7 = alloca ptr, align 8
  %8 = alloca ptr, align 8
  %9 = alloca ptr, align 8
  %10 = alloca ptr, align 8
  %11 = alloca i32, align 4
  %12 = alloca i32, align 4
  %13 = alloca i32, align 4
  store ptr %0, ptr %6, align 8, !tbaa !4
  store ptr %1, ptr %7, align 8, !tbaa !36
  store ptr %2, ptr %8, align 8, !tbaa !38
  store ptr %3, ptr %9, align 8, !tbaa !40
  call void @llvm.lifetime.start.p0(i64 8, ptr %10) #4
  %14 = load ptr, ptr %6, align 8, !tbaa !4
  %15 = getelementptr inbounds nuw %struct.AVCodecContext, ptr %14, i32 0, i32 6
  %16 = load ptr, ptr %15, align 8, !tbaa !9
  store ptr %16, ptr %10, align 8, !tbaa !29
  call void @llvm.lifetime.start.p0(i64 4, ptr %11) #4
  %17 = load ptr, ptr %8, align 8, !tbaa !38
  %18 = getelementptr inbounds nuw %struct.AVFrame, ptr %17, i32 0, i32 5
  %19 = load i32, ptr %18, align 8, !tbaa !41
  %20 = load ptr, ptr %8, align 8, !tbaa !38
  %21 = getelementptr inbounds nuw %struct.AVFrame, ptr %20, i32 0, i32 37
  %22 = getelementptr inbounds nuw %struct.AVChannelLayout, ptr %21, i32 0, i32 1
  %23 = load i32, ptr %22, align 4, !tbaa !46
  %24 = mul nsw i32 %19, %23
  %25 = sdiv i32 %24, 8
  %26 = load ptr, ptr %8, align 8, !tbaa !38
  %27 = getelementptr inbounds nuw %struct.AVFrame, ptr %26, i32 0, i32 5
  %28 = load i32, ptr %27, align 8, !tbaa !41
  %29 = srem i32 %28, 8
  %30 = icmp sgt i32 %29, 0
  %31 = select i1 %30, i32 1, i32 0
  %32 = add nsw i32 %25, %31
  store i32 %32, ptr %11, align 4, !tbaa !47
  call void @llvm.lifetime.start.p0(i64 4, ptr %12) #4
  %33 = load ptr, ptr %6, align 8, !tbaa !4
  %34 = load ptr, ptr %7, align 8, !tbaa !36
  %35 = load i32, ptr %11, align 4, !tbaa !47
  %36 = sext i32 %35 to i64
  %37 = call i32 @ff_get_encode_buffer(ptr noundef %33, ptr noundef %34, i64 noundef %36, i32 noundef 0)
  store i32 %37, ptr %12, align 4, !tbaa !47
  %38 = load i32, ptr %12, align 4, !tbaa !47
  %39 = icmp ne i32 %38, 0
  br i1 %39, label %40, label %43

40:                                               ; preds = %4
  %41 = load ptr, ptr %9, align 8, !tbaa !40
  store i32 0, ptr %41, align 4, !tbaa !47
  %42 = load i32, ptr %12, align 4, !tbaa !47
  store i32 %42, ptr %5, align 4
  store i32 1, ptr %13, align 4
  br label %54

43:                                               ; preds = %4
  %44 = load ptr, ptr %10, align 8, !tbaa !29
  %45 = load i32, ptr %11, align 4, !tbaa !47
  %46 = load ptr, ptr %7, align 8, !tbaa !36
  %47 = getelementptr inbounds nuw %struct.AVPacket, ptr %46, i32 0, i32 3
  %48 = load ptr, ptr %47, align 8, !tbaa !48
  %49 = load ptr, ptr %8, align 8, !tbaa !38
  %50 = getelementptr inbounds nuw %struct.AVFrame, ptr %49, i32 0, i32 0
  %51 = getelementptr inbounds [8 x ptr], ptr %50, i64 0, i64 0
  %52 = load ptr, ptr %51, align 8, !tbaa !50
  call void @au_compress(ptr noundef %44, i32 noundef %45, ptr noundef %48, ptr noundef %52)
  %53 = load ptr, ptr %9, align 8, !tbaa !40
  store i32 1, ptr %53, align 4, !tbaa !47
  store i32 0, ptr %5, align 4
  store i32 1, ptr %13, align 4
  br label %54

54:                                               ; preds = %43, %40
  call void @llvm.lifetime.end.p0(i64 4, ptr %12) #4
  call void @llvm.lifetime.end.p0(i64 4, ptr %11) #4
  call void @llvm.lifetime.end.p0(i64 8, ptr %10) #4
  %55 = load i32, ptr %5, align 4
  ret i32 %55
}