; Function Attrs: nounwind uwtable
define internal i32 @dfpwm_enc_frame(ptr noundef %0, ptr noundef %1, ptr noundef readonly captures(none) %2, ptr noundef writeonly captures(none) %3) #1 {
  %5 = getelementptr inbounds nuw i8, ptr %0, i64 32
  %6 = load ptr, ptr %5, align 8, !tbaa !4
  %7 = getelementptr inbounds nuw i8, ptr %2, i64 112
  %8 = load i32, ptr %7, align 8, !tbaa !33
  %9 = getelementptr inbounds nuw i8, ptr %2, i64 388
  %10 = load i32, ptr %9, align 4, !tbaa !38
  %11 = mul nsw i32 %10, %8
  %12 = sdiv i32 %11, 8
  %13 = and i32 %8, -2147483641
  %14 = icmp sgt i32 %13, 0
  %15 = zext i1 %14 to i32
  %16 = add nsw i32 %12, %15
  %17 = sext i32 %16 to i64
  %18 = tail call i32 @ff_get_encode_buffer(ptr noundef %0, ptr noundef %1, i64 noundef %17, i32 noundef 0) #4
  %.not = icmp eq i32 %18, 0
  br i1 %.not, label %19, label %au_compress.exit

19:                                               ; preds = %4
  %20 = icmp sgt i32 %16, 0
  br i1 %20, label %.preheader.lr.ph.i, label %au_compress.exit

.preheader.lr.ph.i:                               ; preds = %19
  %21 = load ptr, ptr %2, align 8, !tbaa !39
  %22 = getelementptr inbounds nuw i8, ptr %1, i64 24
  %23 = load ptr, ptr %22, align 8, !tbaa !40
  %24 = getelementptr inbounds nuw i8, ptr %6, i64 4
  %25 = getelementptr inbounds nuw i8, ptr %6, i64 8
  %26 = getelementptr inbounds nuw i8, ptr %6, i64 12
  br label %.preheader.i

.preheader.i:                                     ; preds = %27, %.preheader.lr.ph.i
  %.070.i = phi ptr [ %23, %.preheader.lr.ph.i ], [ %29, %27 ]
  %.03969.i = phi ptr [ %21, %.preheader.lr.ph.i ], [ %scevgep.i, %27 ]
  %.04168.i = phi i32 [ 0, %.preheader.lr.ph.i ], [ %51, %27 ]
  %.04567.i = phi i32 [ 0, %.preheader.lr.ph.i ], [ %30, %27 ]
  %.promoted.i = load i32, ptr %24, align 4, !tbaa !29
  %.promoted62.i = load i32, ptr %25, align 4, !tbaa !30
  %.promoted63.i = load i32, ptr %26, align 4, !tbaa !31
  br label %31

27:                                               ; preds = %49
  %scevgep.i = getelementptr i8, ptr %.03969.i, i64 8
  %28 = trunc i32 %51 to i8
  %29 = getelementptr inbounds nuw i8, ptr %.070.i, i64 1
  store i8 %28, ptr %.070.i, align 1, !tbaa !42
  %30 = add nuw nsw i32 %.04567.i, 1
  %exitcond72.not.i = icmp eq i32 %30, %16
  br i1 %exitcond72.not.i, label %au_compress.exit, label %.preheader.i, !llvm.loop !43

31:                                               ; preds = %49, %.preheader.i
  %.166.i = phi ptr [ %.03969.i, %.preheader.i ], [ %35, %49 ]
  %.14265.i = phi i32 [ %.04168.i, %.preheader.i ], [ %51, %49 ]
  %.04464.i = phi i32 [ 0, %.preheader.i ], [ %62, %49 ]
  %32 = phi i32 [ %.promoted.i, %.preheader.i ], [ %.043.i, %49 ]
  %33 = phi i32 [ %.promoted62.i, %.preheader.i ], [ %spec.store.select.i, %49 ]
  %34 = phi i32 [ %.promoted63.i, %.preheader.i ], [ %50, %49 ]
  %35 = getelementptr inbounds nuw i8, ptr %.166.i, i64 1
  %36 = load i8, ptr %.166.i, align 1, !tbaa !42
  %37 = zext i8 %36 to i32
  %38 = add nsw i32 %37, -128
  %39 = icmp sgt i32 %38, %32
  br i1 %39, label %.thread57.i, label %42

.thread57.i:                                      ; preds = %31
  %40 = lshr i32 %.14265.i, 1
  %41 = or i32 %40, 128
  br label %49

42:                                               ; preds = %31
  %43 = icmp eq i32 %38, 127
  %44 = icmp eq i32 %32, 127
  %45 = and i1 %44, %43
  %cond.fr55.i = freeze i1 %45
  %46 = lshr i32 %.14265.i, 1
  br i1 %cond.fr55.i, label %47, label %49

47:                                               ; preds = %42
  %48 = or i32 %46, 128
  br label %49

49:                                               ; preds = %47, %42, %.thread57.i
  %50 = phi i32 [ 127, %.thread57.i ], [ 127, %47 ], [ -128, %42 ]
  %spec.select61.i = phi i32 [ 1, %.thread57.i ], [ 1, %47 ], [ -1, %42 ]
  %51 = phi i32 [ %41, %.thread57.i ], [ %48, %47 ], [ %46, %42 ]
  %52 = sub nsw i32 %50, %32
  %53 = mul nsw i32 %52, %33
  %54 = add nsw i32 %53, 512
  %55 = ashr i32 %54, 10
  %56 = add nsw i32 %55, %32
  %57 = icmp ugt i32 %54, 1023
  %.not.i = icmp eq i32 %56, %50
  %or.cond.i = select i1 %57, i1 true, i1 %.not.i
  %58 = select i1 %or.cond.i, i32 0, i32 %spec.select61.i
  %.043.i = add nsw i32 %58, %56
  store i32 %.043.i, ptr %24, align 4, !tbaa !29
  %.not53.i = icmp eq i32 %50, %34
  %59 = select i1 %.not53.i, i32 1023, i32 0
  %.not54.i = icmp eq i32 %33, %59
  %60 = select i1 %.not53.i, i32 1, i32 -1
  %61 = select i1 %.not54.i, i32 0, i32 %60
  %.040.i = add nsw i32 %61, %33
  %spec.store.select.i = tail call i32 @llvm.smax.i32(i32 %.040.i, i32 8)
  store i32 %spec.store.select.i, ptr %25, align 4, !tbaa !30
  store i32 %50, ptr %26, align 4, !tbaa !31
  %62 = add nuw nsw i32 %.04464.i, 1
  %exitcond.not.i = icmp eq i32 %62, 8
  br i1 %exitcond.not.i, label %27, label %31, !llvm.loop !45

au_compress.exit:                                 ; preds = %27, %19, %4
  %storemerge = phi i32 [ 0, %4 ], [ 1, %19 ], [ 1, %27 ]
  %.0 = phi i32 [ %18, %4 ], [ 0, %19 ], [ 0, %27 ]
  store i32 %storemerge, ptr %3, align 4, !tbaa !46
  ret i32 %.0
}